target datalayout = "e-m:e-p270:32:32-p271:32:32-p272:64:64-i64:64-i128:128-f80:128-n8:16:32:64-S128"
target triple = "x86_64-pc-linux-gnu"

%struct.H5O_copy_t = type { i8, i8, i8, i8, i8, i8, i8, ptr, i32, i32, ptr, ptr, i8, ptr, ptr, ptr, ptr, ptr, i64 }

@H5O_init_g = external global i8, align 1
@H5_libterm_g = external global i8, align 1

; Function Attrs: nounwind uwtable
define internal i32 @H5O__ainfo_pre_copy_file(ptr noundef %0, ptr noundef %1, ptr noundef %2, ptr noundef %3, ptr noundef %4) #0 {
  %6 = alloca ptr, align 8
  %7 = alloca ptr, align 8
  %8 = alloca ptr, align 8
  %9 = alloca ptr, align 8
  %10 = alloca ptr, align 8
  store ptr %0, ptr %6, align 8, !tbaa !3
  store ptr %1, ptr %7, align 8, !tbaa !20
  store ptr %2, ptr %8, align 8, !tbaa !35
  store ptr %3, ptr %9, align 8, !tbaa !37
  store ptr %4, ptr %10, align 8, !tbaa !20
  %11 = load i8, ptr @H5O_init_g, align 1, !tbaa !21, !range !23, !noundef !24
  %12 = trunc i8 %11 to i1
  br i1 %12, label %17, label %13

13:                                               ; preds = %5
  %14 = load i8, ptr @H5_libterm_g, align 1, !tbaa !21, !range !23, !noundef !24
  %15 = trunc i8 %14 to i1
  %16 = xor i1 %15, true
  br label %17

17:                                               ; preds = %13, %5
  %18 = phi i1 [ true, %5 ], [ %16, %13 ]
  %19 = xor i1 %18, true
  %20 = xor i1 %19, true
  %21 = zext i1 %20 to i32
  %22 = sext i32 %21 to i64
  %23 = call i64 @llvm.expect.i64(i64 %22, i64 1)
  %24 = icmp ne i64 %23, 0
  br i1 %24, label %25, label %33

25:                                               ; preds = %17
  %26 = load ptr, ptr %9, align 8, !tbaa !37
  %27 = getelementptr inbounds nuw %struct.H5O_copy_t, ptr %26, i32 0, i32 4
  %28 = load i8, ptr %27, align 4, !tbaa !39, !range !23, !noundef !24
  %29 = trunc i8 %28 to i1
  br i1 %29, label %30, label %32

30:                                               ; preds = %25
  %31 = load ptr, ptr %8, align 8, !tbaa !35
  store i8 1, ptr %31, align 1, !tbaa !21
  br label %32

32:                                               ; preds = %30, %25
  br label %33

33:                                               ; preds = %32, %17
  ret i32 0
}