; Function Attrs: mustprogress nofree norecurse nosync nounwind willreturn memory(read, argmem: readwrite, inaccessiblemem: none) uwtable
define internal noundef i32 @H5O__ainfo_pre_copy_file(ptr readnone captures(none) %0, ptr readnone captures(none) %1, ptr noundef writeonly captures(none) %2, ptr noundef readonly captures(none) %3, ptr readnone captures(none) %4) #1 {
  %6 = load i8, ptr @H5O_init_g, align 1, !tbaa !3, !range !7, !noundef !8
  %7 = trunc nuw i8 %6 to i1
  %8 = load i8, ptr @H5_libterm_g, align 1, !range !7
  %9 = trunc nuw i8 %8 to i1
  %10 = xor i1 %9, true
  %11 = select i1 %7, i1 true, i1 %10
  br i1 %11, label %12, label %17, !prof !9

12:                                               ; preds = %5
  %13 = getelementptr inbounds nuw i8, ptr %3, i64 4
  %14 = load i8, ptr %13, align 4, !tbaa !27, !range !7, !noundef !8
  %15 = trunc nuw i8 %14 to i1
  br i1 %15, label %16, label %17

16:                                               ; preds = %12
  store i8 1, ptr %2, align 1, !tbaa !3
  br label %17

17:                                               ; preds = %12, %16, %5
  ret i32 0
}